target datalayout = "e-m:e-p270:32:32-p271:32:32-p272:64:64-i64:64-i128:128-f80:128-n8:16:32:64-S128"
target triple = "x86_64-pc-linux-gnu"

%struct.H5O_loc_t = type { ptr, i64, i8 }
%struct.H5A_t = type { %struct.H5O_shared_t, %struct.H5O_loc_t, i8, %struct.H5G_name_t, ptr }
%struct.H5O_shared_t = type { i32, ptr, i32, %union.anon }
%union.anon = type { %struct.H5O_mesg_loc_t }
%struct.H5O_mesg_loc_t = type { i32, i64 }
%struct.H5G_name_t = type { ptr, ptr, i32 }
%struct.H5A_shared_t = type { i8, ptr, i32, ptr, i64, ptr, i64, ptr, i64, i32, i32 }

@.str.3 = private unnamed_addr constant [100 x i8] c"generated/home/dtcxzyw/WorkSpace/Projects/compilers/llvm-opt-benchmark/bench/hdf5/hdf5/src/H5Aint.c\00", align 1
@H5E_CANTINIT_g = external global i64, align 8
@H5E_BADTYPE_g = external global i64, align 8
@H5P_LST_ATTRIBUTE_CREATE_ID_g = external global i64, align 8
@.str.12 = private unnamed_addr constant [19 x i8] c"character_encoding\00", align 1
@H5E_PLIST_g = external global i64, align 8
@H5E_CANTSET_g = external global i64, align 8
@__func__.H5A__get_create_plist = private unnamed_addr constant [22 x i8] c"H5A__get_create_plist\00", align 1
@.str.48 = private unnamed_addr constant [23 x i8] c"can't get default ACPL\00", align 1
@.str.49 = private unnamed_addr constant [45 x i8] c"unable to copy attribute creation properties\00", align 1
@.str.50 = private unnamed_addr constant [24 x i8] c"can't get property list\00", align 1
@.str.51 = private unnamed_addr constant [29 x i8] c"can't set character encoding\00", align 1

; Function Attrs: nounwind uwtable
define i64 @H5A__get_create_plist(ptr noundef %0) #0 {
  %2 = alloca ptr, align 8
  %3 = alloca ptr, align 8
  %4 = alloca i64, align 8
  %5 = alloca ptr, align 8
  %6 = alloca i64, align 8
  %7 = alloca i8, align 1
  store ptr %0, ptr %2, align 8
  store i64 -1, ptr %6, align 8
  store i8 0, ptr %7, align 1
  %8 = load i64, ptr @H5P_LST_ATTRIBUTE_CREATE_ID_g, align 8
  %9 = call ptr @H5I_object(i64 noundef %8)
  store ptr %9, ptr %3, align 8
  %10 = icmp eq ptr null, %9
  br i1 %10, label %11, label %26

11:                                               ; preds = %1
  br label %12

12:                                               ; preds = %11
  br label %13

13:                                               ; preds = %12
  br label %14

14:                                               ; preds = %13
  %15 = load i64, ptr @H5E_PLIST_g, align 8
  %16 = load i64, ptr @H5E_BADTYPE_g, align 8
  %17 = call i32 (ptr, ptr, i32, i64, i64, ptr, ...) @H5E_printf_stack(ptr noundef @.str.3, ptr noundef @__func__.H5A__get_create_plist, i32 noundef 1065, i64 noundef %15, i64 noundef %16, ptr noundef @.str.48)
  br label %18

18:                                               ; preds = %14
  store i8 1, ptr %7, align 1
  %19 = load i8, ptr %7, align 1
  %20 = trunc i8 %19 to i1
  %21 = zext i1 %20 to i8
  store i8 %21, ptr %7, align 1
  br label %22

22:                                               ; preds = %18
  br label %23

23:                                               ; preds = %22
  store i64 -1, ptr %6, align 8
  br label %89

24:                                               ; No predecessors!
  br label %25

25:                                               ; preds = %24
  br label %26

26:                                               ; preds = %25, %1
  %27 = load ptr, ptr %3, align 8
  %28 = call i64 @H5P_copy_plist(ptr noundef %27, i1 noundef zeroext true)
  store i64 %28, ptr %4, align 8
  %29 = icmp slt i64 %28, 0
  br i1 %29, label %30, label %45

30:                                               ; preds = %26
  br label %31

31:                                               ; preds = %30
  br label %32

32:                                               ; preds = %31
  br label %33

33:                                               ; preds = %32
  %34 = load i64, ptr @H5E_PLIST_g, align 8
  %35 = load i64, ptr @H5E_CANTINIT_g, align 8
  %36 = call i32 (ptr, ptr, i32, i64, i64, ptr, ...) @H5E_printf_stack(ptr noundef @.str.3, ptr noundef @__func__.H5A__get_create_plist, i32 noundef 1069, i64 noundef %34, i64 noundef %35, ptr noundef @.str.49)
  br label %37

37:                                               ; preds = %33
  store i8 1, ptr %7, align 1
  %38 = load i8, ptr %7, align 1
  %39 = trunc i8 %38 to i1
  %40 = zext i1 %39 to i8
  store i8 %40, ptr %7, align 1
  br label %41

41:                                               ; preds = %37
  br label %42

42:                                               ; preds = %41
  store i64 -1, ptr %6, align 8
  br label %89

43:                                               ; No predecessors!
  br label %44

44:                                               ; preds = %43
  br label %45

45:                                               ; preds = %44, %26
  %46 = load i64, ptr %4, align 8
  %47 = call ptr @H5I_object(i64 noundef %46)
  store ptr %47, ptr %5, align 8
  %48 = icmp eq ptr null, %47
  br i1 %48, label %49, label %64

49:                                               ; preds = %45
  br label %50

50:                                               ; preds = %49
  br label %51

51:                                               ; preds = %50
  br label %52

52:                                               ; preds = %51
  %53 = load i64, ptr @H5E_PLIST_g, align 8
  %54 = load i64, ptr @H5E_BADTYPE_g, align 8
  %55 = call i32 (ptr, ptr, i32, i64, i64, ptr, ...) @H5E_printf_stack(ptr noundef @.str.3, ptr noundef @__func__.H5A__get_create_plist, i32 noundef 1071, i64 noundef %53, i64 noundef %54, ptr noundef @.str.50)
  br label %56

56:                                               ; preds = %52
  store i8 1, ptr %7, align 1
  %57 = load i8, ptr %7, align 1
  %58 = trunc i8 %57 to i1
  %59 = zext i1 %58 to i8
  store i8 %59, ptr %7, align 1
  br label %60

60:                                               ; preds = %56
  br label %61

61:                                               ; preds = %60
  store i64 -1, ptr %6, align 8
  br label %89

62:                                               ; No predecessors!
  br label %63

63:                                               ; preds = %62
  br label %64

64:                                               ; preds = %63, %45
  %65 = load ptr, ptr %5, align 8
  %66 = load ptr, ptr %2, align 8
  %67 = getelementptr inbounds %struct.H5A_t, ptr %66, i32 0, i32 4
  %68 = load ptr, ptr %67, align 8
  %69 = getelementptr inbounds %struct.H5A_shared_t, ptr %68, i32 0, i32 2
  %70 = call i32 @H5P_set(ptr noundef %65, ptr noundef @.str.12, ptr noundef %69)
  %71 = icmp slt i32 %70, 0
  br i1 %71, label %72, label %87

72:                                               ; preds = %64
  br label %73

73:                                               ; preds = %72
  br label %74

74:                                               ; preds = %73
  br label %75

75:                                               ; preds = %74
  %76 = load i64, ptr @H5E_PLIST_g, align 8
  %77 = load i64, ptr @H5E_CANTSET_g, align 8
  %78 = call i32 (ptr, ptr, i32, i64, i64, ptr, ...) @H5E_printf_stack(ptr noundef @.str.3, ptr noundef @__func__.H5A__get_create_plist, i32 noundef 1075, i64 noundef %76, i64 noundef %77, ptr noundef @.str.51)
  br label %79

79:                                               ; preds = %75
  store i8 1, ptr %7, align 1
  %80 = load i8, ptr %7, align 1
  %81 = trunc i8 %80 to i1
  %82 = zext i1 %81 to i8
  store i8 %82, ptr %7, align 1
  br label %83

83:                                               ; preds = %79
  br label %84

84:                                               ; preds = %83
  store i64 -1, ptr %6, align 8
  br label %89

85:                                               ; No predecessors!
  br label %86

86:                                               ; preds = %85
  br label %87

87:                                               ; preds = %86, %64
  %88 = load i64, ptr %4, align 8
  store i64 %88, ptr %6, align 8
  br label %89

89:                                               ; preds = %87, %84, %61, %42, %23
  %90 = load i64, ptr %6, align 8
  ret i64 %90
}