; Function Attrs: nounwind uwtable
define range(i64 -1, -9223372036854775808) i64 @H5A__get_create_plist(ptr nocapture noundef readonly %0) local_unnamed_addr #0 {
  %2 = load i64, ptr @H5P_LST_ATTRIBUTE_CREATE_ID_g, align 8
  %3 = tail call ptr @H5I_object(i64 noundef %2) #13
  %4 = icmp eq ptr %3, null
  br i1 %4, label %5, label %9

5:                                                ; preds = %1
  %6 = load i64, ptr @H5E_PLIST_g, align 8
  %7 = load i64, ptr @H5E_BADTYPE_g, align 8
  %8 = tail call i32 (ptr, ptr, i32, i64, i64, ptr, ...) @H5E_printf_stack(ptr noundef nonnull @.str.3, ptr noundef nonnull @__func__.H5A__get_create_plist, i32 noundef 1065, i64 noundef %6, i64 noundef %7, ptr noundef nonnull @.str.48) #13
  br label %33

9:                                                ; preds = %1
  %10 = tail call i64 @H5P_copy_plist(ptr noundef nonnull %3, i1 noundef zeroext true) #13
  %11 = icmp slt i64 %10, 0
  br i1 %11, label %12, label %16

12:                                               ; preds = %9
  %13 = load i64, ptr @H5E_PLIST_g, align 8
  %14 = load i64, ptr @H5E_CANTINIT_g, align 8
  %15 = tail call i32 (ptr, ptr, i32, i64, i64, ptr, ...) @H5E_printf_stack(ptr noundef nonnull @.str.3, ptr noundef nonnull @__func__.H5A__get_create_plist, i32 noundef 1069, i64 noundef %13, i64 noundef %14, ptr noundef nonnull @.str.49) #13
  br label %33

16:                                               ; preds = %9
  %17 = tail call ptr @H5I_object(i64 noundef %10) #13
  %18 = icmp eq ptr %17, null
  br i1 %18, label %19, label %23

19:                                               ; preds = %16
  %20 = load i64, ptr @H5E_PLIST_g, align 8
  %21 = load i64, ptr @H5E_BADTYPE_g, align 8
  %22 = tail call i32 (ptr, ptr, i32, i64, i64, ptr, ...) @H5E_printf_stack(ptr noundef nonnull @.str.3, ptr noundef nonnull @__func__.H5A__get_create_plist, i32 noundef 1071, i64 noundef %20, i64 noundef %21, ptr noundef nonnull @.str.50) #13
  br label %33

23:                                               ; preds = %16
  %24 = getelementptr inbounds i8, ptr %0, i64 96
  %25 = load ptr, ptr %24, align 8
  %26 = getelementptr inbounds i8, ptr %25, i64 16
  %27 = tail call i32 @H5P_set(ptr noundef nonnull %17, ptr noundef nonnull @.str.12, ptr noundef nonnull %26) #13
  %28 = icmp slt i32 %27, 0
  br i1 %28, label %29, label %33

29:                                               ; preds = %23
  %30 = load i64, ptr @H5E_PLIST_g, align 8
  %31 = load i64, ptr @H5E_CANTSET_g, align 8
  %32 = tail call i32 (ptr, ptr, i32, i64, i64, ptr, ...) @H5E_printf_stack(ptr noundef nonnull @.str.3, ptr noundef nonnull @__func__.H5A__get_create_plist, i32 noundef 1075, i64 noundef %30, i64 noundef %31, ptr noundef nonnull @.str.51) #13
  br label %33

33:                                               ; preds = %23, %29, %19, %12, %5
  %.0 = phi i64 [ -1, %5 ], [ -1, %12 ], [ -1, %19 ], [ -1, %29 ], [ %10, %23 ]
  ret i64 %.0
}